; Function Attrs: nounwind uwtable
define internal void @php_xml_free_wrapper(ptr noundef %0) #0 {
  %.not = icmp eq ptr %0, null
  br i1 %.not, label %3, label %2

2:                                                ; preds = %1
  tail call void @_efree(ptr noundef nonnull %0) #16
  br label %3

3:                                                ; preds = %2, %1
  ret void
}